target datalayout = "e-m:e-p270:32:32-p271:32:32-p272:64:64-i64:64-i128:128-f80:128-n8:16:32:64-S128"
target triple = "x86_64-pc-linux-gnu"

%"class.std::__cxx11::basic_string" = type { %"struct.std::__cxx11::basic_string<char>::_Alloc_hider", i64, %union.anon }
%"struct.std::__cxx11::basic_string<char>::_Alloc_hider" = type { ptr }
%union.anon = type { i64, [8 x i8] }

@_ZN19OpenColorIO_v2_5devL15TAG_DESCRIPTIONE = internal constant [12 x i8] c"Description\00", align 1
@_ZN19OpenColorIO_v2_5devL26METADATA_INPUT_DESCRIPTIONE = internal constant [17 x i8] c"InputDescription\00", align 16
@_ZN19OpenColorIO_v2_5devL28METADATA_VIEWING_DESCRIPTIONE = internal constant [19 x i8] c"ViewingDescription\00", align 16
@_ZN19OpenColorIO_v2_5devL11TAG_SOPNODEE = internal constant [8 x i8] c"SOPNode\00", align 1
@_ZN19OpenColorIO_v2_5devL11TAG_SATNODEE = internal constant [8 x i8] c"SatNode\00", align 1
@_ZN19OpenColorIO_v2_5devL14TAG_SATNODEALTE = internal constant [8 x i8] c"SATNode\00", align 1

; Function Attrs: noinline noreturn nounwind uwtable
define linkonce_odr hidden void @__clang_call_terminate(ptr noundef %0) #6 comdat {
  %2 = call ptr @__cxa_begin_catch(ptr %0) #3
  call void @_ZSt9terminatev() #21
  unreachable
}

; Function Attrs: mustprogress nounwind uwtable
define available_externally noundef ptr @_ZNKSt7__cxx1112basic_stringIcSt11char_traitsIcESaIcEE7_M_dataEv(ptr noundef nonnull align 8 dereferenceable(32) %0) #4 align 2 {
  %2 = alloca ptr, align 8
  store ptr %0, ptr %2, align 8, !tbaa !13
  %3 = load ptr, ptr %2, align 8
  %4 = getelementptr inbounds nuw %"class.std::__cxx11::basic_string", ptr %3, i32 0, i32 0
  %5 = getelementptr inbounds nuw %"struct.std::__cxx11::basic_string<char>::_Alloc_hider", ptr %4, i32 0, i32 0
  %6 = load ptr, ptr %5, align 8, !tbaa !210
  ret ptr %6
}

; Function Attrs: mustprogress nounwind uwtable
define available_externally noundef ptr @_ZNKSt7__cxx1112basic_stringIcSt11char_traitsIcESaIcEE5c_strEv(ptr noundef nonnull align 8 dereferenceable(32) %0) #4 align 2 personality ptr @__gxx_personality_v0 {
  %2 = alloca ptr, align 8
  store ptr %0, ptr %2, align 8, !tbaa !13
  %3 = load ptr, ptr %2, align 8
  %4 = invoke noundef ptr @_ZNKSt7__cxx1112basic_stringIcSt11char_traitsIcESaIcEE7_M_dataEv(ptr noundef nonnull align 8 dereferenceable(32) %3)
          to label %5 unwind label %6

5:                                                ; preds = %1
  ret ptr %4

6:                                                ; preds = %1
  %7 = landingpad { ptr, i32 }
          catch ptr null
  %8 = extractvalue { ptr, i32 } %7, 0
  call void @__clang_call_terminate(ptr %8) #21
  unreachable
}

; Function Attrs: mustprogress nounwind uwtable
define hidden noundef zeroext i1 @_ZN19OpenColorIO_v2_5dev9CDLParser4Impl21IsValidDescriptionTagERKNSt7__cxx1112basic_stringIcSt11char_traitsIcESaIcEEES9_(ptr noundef nonnull align 8 dereferenceable(32) %0, ptr noundef nonnull align 8 dereferenceable(32) %1) #4 align 2 {
  %3 = alloca ptr, align 8
  %4 = alloca ptr, align 8
  %5 = alloca ptr, align 8
  %6 = alloca ptr, align 8
  %7 = alloca i8, align 1
  %8 = alloca i8, align 1
  %9 = alloca i8, align 1
  store ptr %0, ptr %3, align 8, !tbaa !13
  store ptr %1, ptr %4, align 8, !tbaa !13
  call void @llvm.lifetime.start.p0(i64 8, ptr %5) #3
  %10 = load ptr, ptr %3, align 8, !tbaa !13
  %11 = call noundef ptr @_ZNKSt7__cxx1112basic_stringIcSt11char_traitsIcESaIcEE5c_strEv(ptr noundef nonnull align 8 dereferenceable(32) %10) #3
  store ptr %11, ptr %5, align 8, !tbaa !49
  call void @llvm.lifetime.start.p0(i64 8, ptr %6) #3
  %12 = load ptr, ptr %4, align 8, !tbaa !13
  %13 = call noundef ptr @_ZNKSt7__cxx1112basic_stringIcSt11char_traitsIcESaIcEE5c_strEv(ptr noundef nonnull align 8 dereferenceable(32) %12) #3
  store ptr %13, ptr %6, align 8, !tbaa !49
  call void @llvm.lifetime.start.p0(i64 1, ptr %7) #3
  %14 = load ptr, ptr %5, align 8, !tbaa !49
  %15 = call i32 @strcmp(ptr noundef %14, ptr noundef @_ZN19OpenColorIO_v2_5devL15TAG_DESCRIPTIONE) #10
  %16 = icmp eq i32 0, %15
  %17 = zext i1 %16 to i8
  store i8 %17, ptr %7, align 1, !tbaa !55
  call void @llvm.lifetime.start.p0(i64 1, ptr %8) #3
  %18 = load ptr, ptr %5, align 8, !tbaa !49
  %19 = call i32 @strcmp(ptr noundef %18, ptr noundef @_ZN19OpenColorIO_v2_5devL26METADATA_INPUT_DESCRIPTIONE) #10
  %20 = icmp eq i32 0, %19
  br i1 %20, label %25, label %21

21:                                               ; preds = %2
  %22 = load ptr, ptr %5, align 8, !tbaa !49
  %23 = call i32 @strcmp(ptr noundef %22, ptr noundef @_ZN19OpenColorIO_v2_5devL28METADATA_VIEWING_DESCRIPTIONE) #10
  %24 = icmp eq i32 0, %23
  br label %25

25:                                               ; preds = %21, %2
  %26 = phi i1 [ true, %2 ], [ %24, %21 ]
  %27 = zext i1 %26 to i8
  store i8 %27, ptr %8, align 1, !tbaa !55
  call void @llvm.lifetime.start.p0(i64 1, ptr %9) #3
  %28 = load ptr, ptr %6, align 8, !tbaa !49
  %29 = call i32 @strcmp(ptr noundef %28, ptr noundef @_ZN19OpenColorIO_v2_5devL11TAG_SOPNODEE) #10
  %30 = icmp eq i32 0, %29
  br i1 %30, label %39, label %31

31:                                               ; preds = %25
  %32 = load ptr, ptr %6, align 8, !tbaa !49
  %33 = call i32 @strcmp(ptr noundef %32, ptr noundef @_ZN19OpenColorIO_v2_5devL11TAG_SATNODEE) #10
  %34 = icmp eq i32 0, %33
  br i1 %34, label %39, label %35

35:                                               ; preds = %31
  %36 = load ptr, ptr %6, align 8, !tbaa !49
  %37 = call i32 @strcmp(ptr noundef %36, ptr noundef @_ZN19OpenColorIO_v2_5devL14TAG_SATNODEALTE) #10
  %38 = icmp eq i32 0, %37
  br label %39

39:                                               ; preds = %35, %31, %25
  %40 = phi i1 [ true, %31 ], [ true, %25 ], [ %38, %35 ]
  %41 = zext i1 %40 to i8
  store i8 %41, ptr %9, align 1, !tbaa !55
  %42 = load i8, ptr %7, align 1, !tbaa !55, !range !56, !noundef !57
  %43 = trunc i8 %42 to i1
  br i1 %43, label %53, label %44

44:                                               ; preds = %39
  %45 = load i8, ptr %8, align 1, !tbaa !55, !range !56, !noundef !57
  %46 = trunc i8 %45 to i1
  br i1 %46, label %47, label %51

47:                                               ; preds = %44
  %48 = load i8, ptr %9, align 1, !tbaa !55, !range !56, !noundef !57
  %49 = trunc i8 %48 to i1
  %50 = xor i1 %49, true
  br label %51

51:                                               ; preds = %47, %44
  %52 = phi i1 [ false, %44 ], [ %50, %47 ]
  br label %53

53:                                               ; preds = %51, %39
  %54 = phi i1 [ true, %39 ], [ %52, %51 ]
  call void @llvm.lifetime.end.p0(i64 1, ptr %9) #3
  call void @llvm.lifetime.end.p0(i64 1, ptr %8) #3
  call void @llvm.lifetime.end.p0(i64 1, ptr %7) #3
  call void @llvm.lifetime.end.p0(i64 8, ptr %6) #3
  call void @llvm.lifetime.end.p0(i64 8, ptr %5) #3
  ret i1 %54
}