; Function Attrs: mustprogress nofree nounwind willreturn memory(read, inaccessiblemem: none) uwtable
define hidden noundef zeroext i1 @_ZN19OpenColorIO_v2_5dev9CDLParser4Impl21IsValidDescriptionTagERKNSt7__cxx1112basic_stringIcSt11char_traitsIcESaIcEEES9_(ptr noundef nonnull readonly align 8 captures(none) dereferenceable(32) %0, ptr noundef nonnull readonly align 8 captures(none) dereferenceable(32) %1) local_unnamed_addr #14 align 2 personality ptr @__gxx_personality_v0 {
  %3 = load ptr, ptr %0, align 8, !tbaa !30
  %4 = load ptr, ptr %1, align 8, !tbaa !30
  %5 = tail call i32 @strcmp(ptr noundef nonnull dereferenceable(1) %3, ptr noundef nonnull dereferenceable(12) @_ZN19OpenColorIO_v2_5devL15TAG_DESCRIPTIONE) #34
  %6 = icmp eq i32 %5, 0
  %7 = tail call i32 @strcmp(ptr noundef nonnull dereferenceable(1) %3, ptr noundef nonnull dereferenceable(17) @_ZN19OpenColorIO_v2_5devL26METADATA_INPUT_DESCRIPTIONE) #34
  %8 = icmp eq i32 %7, 0
  br i1 %8, label %12, label %9

9:                                                ; preds = %2
  %10 = tail call i32 @strcmp(ptr noundef nonnull dereferenceable(1) %3, ptr noundef nonnull dereferenceable(19) @_ZN19OpenColorIO_v2_5devL28METADATA_VIEWING_DESCRIPTIONE) #34
  %11 = icmp eq i32 %10, 0
  br label %12

12:                                               ; preds = %9, %2
  %13 = phi i1 [ true, %2 ], [ %11, %9 ]
  %14 = tail call i32 @strcmp(ptr noundef nonnull dereferenceable(1) %4, ptr noundef nonnull dereferenceable(8) @_ZN19OpenColorIO_v2_5devL11TAG_SOPNODEE) #34
  %15 = icmp eq i32 %14, 0
  br i1 %15, label %22, label %16

16:                                               ; preds = %12
  %17 = tail call i32 @strcmp(ptr noundef nonnull dereferenceable(1) %4, ptr noundef nonnull dereferenceable(8) @_ZN19OpenColorIO_v2_5devL11TAG_SATNODEE) #34
  %18 = icmp eq i32 %17, 0
  br i1 %18, label %22, label %19

19:                                               ; preds = %16
  %20 = tail call i32 @strcmp(ptr noundef nonnull dereferenceable(1) %4, ptr noundef nonnull dereferenceable(8) @_ZN19OpenColorIO_v2_5devL14TAG_SATNODEALTE) #34
  %21 = icmp ne i32 %20, 0
  br label %22

22:                                               ; preds = %19, %16, %12
  %23 = phi i1 [ false, %16 ], [ false, %12 ], [ %21, %19 ]
  br i1 %6, label %26, label %24

24:                                               ; preds = %22
  %25 = select i1 %13, i1 %23, i1 false
  br label %26

26:                                               ; preds = %24, %22
  %27 = phi i1 [ true, %22 ], [ %25, %24 ]
  ret i1 %27
}